; Function Attrs: nounwind uwtable
define ptr @l_Lean_RBNode_max___rarg(ptr noundef %0) local_unnamed_addr #1 {
  br label %2

2:                                                ; preds = %lean_obj_tag.exit24, %1
  %.018 = phi ptr [ %0, %1 ], [ %14, %lean_obj_tag.exit24 ]
  %3 = ptrtoint ptr %.018 to i64
  %4 = and i64 %3, 1
  %.not.i = icmp eq i64 %4, 0
  br i1 %.not.i, label %8, label %5

5:                                                ; preds = %2
  %6 = lshr i64 %3, 1
  %7 = trunc i64 %6 to i32
  br label %lean_obj_tag.exit

8:                                                ; preds = %2
  %9 = getelementptr i8, ptr %.018, i64 4
  %.val.i = load i32, ptr %9, align 4
  %10 = lshr i32 %.val.i, 24
  br label %lean_obj_tag.exit

lean_obj_tag.exit:                                ; preds = %5, %8
  %.0.i = phi i32 [ %7, %5 ], [ %10, %8 ]
  %11 = icmp eq i32 %.0.i, 0
  br i1 %11, label %.loopexit, label %12

12:                                               ; preds = %lean_obj_tag.exit
  %13 = getelementptr inbounds nuw i8, ptr %.018, i64 32
  %14 = load ptr, ptr %13, align 8, !tbaa !10
  %15 = ptrtoint ptr %14 to i64
  %16 = and i64 %15, 1
  %.not.i21 = icmp eq i64 %16, 0
  br i1 %.not.i21, label %20, label %17

17:                                               ; preds = %12
  %18 = lshr i64 %15, 1
  %19 = trunc i64 %18 to i32
  br label %lean_obj_tag.exit24

20:                                               ; preds = %12
  %21 = getelementptr i8, ptr %14, i64 4
  %.val.i23 = load i32, ptr %21, align 4
  %22 = lshr i32 %.val.i23, 24
  br label %lean_obj_tag.exit24

lean_obj_tag.exit24:                              ; preds = %17, %20
  %.0.i22 = phi i32 [ %19, %17 ], [ %22, %20 ]
  %23 = icmp eq i32 %.0.i22, 0
  br i1 %23, label %24, label %2

24:                                               ; preds = %lean_obj_tag.exit24
  %25 = getelementptr inbounds nuw i8, ptr %.018, i64 16
  %26 = load ptr, ptr %25, align 8, !tbaa !10
  %27 = getelementptr inbounds nuw i8, ptr %.018, i64 24
  %28 = load ptr, ptr %27, align 8, !tbaa !10
  %29 = ptrtoint ptr %28 to i64
  %30 = and i64 %29, 1
  %.not = icmp eq i64 %30, 0
  br i1 %.not, label %31, label %lean_inc.exit20

31:                                               ; preds = %24
  %.val.i25 = load i32, ptr %28, align 4, !tbaa !4
  %32 = icmp sgt i32 %.val.i25, 0
  br i1 %32, label %33, label %35, !prof !9

33:                                               ; preds = %31
  %34 = add nuw i32 %.val.i25, 1
  store i32 %34, ptr %28, align 4, !tbaa !4
  br label %lean_inc.exit20

35:                                               ; preds = %31
  %.not.i26 = icmp eq i32 %.val.i25, 0
  br i1 %.not.i26, label %lean_inc.exit20, label %36

36:                                               ; preds = %35
  tail call void @lean_inc_ref_cold(ptr noundef nonnull %28) #9
  br label %lean_inc.exit20

lean_inc.exit20:                                  ; preds = %36, %35, %33, %24
  %37 = ptrtoint ptr %26 to i64
  %38 = and i64 %37, 1
  %.not36 = icmp eq i64 %38, 0
  br i1 %.not36, label %39, label %lean_inc.exit

39:                                               ; preds = %lean_inc.exit20
  %.val.i27 = load i32, ptr %26, align 4, !tbaa !4
  %40 = icmp sgt i32 %.val.i27, 0
  br i1 %40, label %41, label %43, !prof !9

41:                                               ; preds = %39
  %42 = add nuw i32 %.val.i27, 1
  store i32 %42, ptr %26, align 4, !tbaa !4
  br label %lean_inc.exit

43:                                               ; preds = %39
  %.not.i28 = icmp eq i32 %.val.i27, 0
  br i1 %.not.i28, label %lean_inc.exit, label %44

44:                                               ; preds = %43
  tail call void @lean_inc_ref_cold(ptr noundef nonnull %26) #9
  br label %lean_inc.exit

lean_inc.exit:                                    ; preds = %44, %43, %41, %lean_inc.exit20
  tail call void @lean_inc_heartbeat() #9
  %45 = tail call noalias ptr @mi_malloc_small(i64 noundef 24) #9
  %46 = icmp eq ptr %45, null
  br i1 %46, label %47, label %lean_alloc_ctor.exit

47:                                               ; preds = %lean_inc.exit
  tail call void @lean_internal_panic_out_of_memory() #10
  unreachable

lean_alloc_ctor.exit:                             ; preds = %lean_inc.exit
  %48 = getelementptr inbounds nuw i8, ptr %45, i64 4
  store i32 1, ptr %45, align 4, !tbaa !4
  store i32 131096, ptr %48, align 4
  %49 = getelementptr inbounds nuw i8, ptr %45, i64 8
  store ptr %26, ptr %49, align 8, !tbaa !10
  %50 = getelementptr inbounds nuw i8, ptr %45, i64 16
  store ptr %28, ptr %50, align 8, !tbaa !10
  tail call void @lean_inc_heartbeat() #9
  %51 = tail call noalias ptr @mi_malloc_small(i64 noundef 16) #9
  %52 = icmp eq ptr %51, null
  br i1 %52, label %53, label %.thread

53:                                               ; preds = %lean_alloc_ctor.exit
  tail call void @lean_internal_panic_out_of_memory() #10
  unreachable

.thread:                                          ; preds = %lean_alloc_ctor.exit
  %54 = getelementptr inbounds nuw i8, ptr %51, i64 4
  store i32 1, ptr %51, align 4, !tbaa !4
  store i32 16842768, ptr %54, align 4
  %55 = getelementptr inbounds nuw i8, ptr %51, i64 8
  store ptr %45, ptr %55, align 8, !tbaa !10
  br label %.loopexit

.loopexit:                                        ; preds = %lean_obj_tag.exit, %.thread
  %.1 = phi ptr [ %51, %.thread ], [ inttoptr (i64 1 to ptr), %lean_obj_tag.exit ]
  ret ptr %.1
}